target datalayout = "e-m:e-p270:32:32-p271:32:32-p272:64:64-i64:64-i128:128-f80:128-n8:16:32:64-S128"
target triple = "x86_64-pc-linux-gnu"

%struct.expert_field = type { i32, i32 }
%struct.pdcp_lte_info = type { i8, i16, i32, i16, i32, i8, i32, i8, %struct.rohc_info, i8, i16 }
%struct.rohc_info = type { i8, i8, i8, i8, i32, i8, i8, i16, ptr }

@ei_pdcp_lte_unknown_udp_framing_tag = internal global %struct.expert_field zeroinitializer, align 4
@ei_pdcp_lte_missing_udp_framing_tag = internal global %struct.expert_field zeroinitializer, align 4
@.str.168 = private unnamed_addr constant [9 x i8] c"pdcp-lte\00", align 1
@proto_pdcp_lte = hidden global i32 0, align 4

; Function Attrs: null_pointer_is_valid sspstrong uwtable
define internal zeroext i1 @dissect_pdcp_lte_heur(ptr noundef %0, ptr noundef %1, ptr noundef %2, ptr noundef %3) #0 {
  %5 = alloca i1, align 1
  %6 = alloca ptr, align 8
  %7 = alloca ptr, align 8
  %8 = alloca ptr, align 8
  %9 = alloca ptr, align 8
  %10 = alloca i32, align 4
  %11 = alloca ptr, align 8
  %12 = alloca ptr, align 8
  %13 = alloca i8, align 1
  %14 = alloca i8, align 1
  %15 = alloca i32, align 4
  store ptr %0, ptr %6, align 8
  store ptr %1, ptr %7, align 8
  store ptr %2, ptr %8, align 8
  store ptr %3, ptr %9, align 8
  call void @llvm.lifetime.start.p0(i64 4, ptr %10) #15
  store i32 0, ptr %10, align 4
  call void @llvm.lifetime.start.p0(i64 8, ptr %11) #15
  call void @llvm.lifetime.start.p0(i64 8, ptr %12) #15
  call void @llvm.lifetime.start.p0(i64 1, ptr %13) #15
  store i8 0, ptr %13, align 1
  call void @llvm.lifetime.start.p0(i64 1, ptr %14) #15
  store i8 0, ptr %14, align 1
  %16 = load ptr, ptr %6, align 8
  %17 = load i32, ptr %10, align 4
  %18 = call i32 @tvb_captured_length_remaining(ptr noundef %16, i32 noundef %17)
  %19 = icmp slt i32 %18, 13
  br i1 %19, label %20, label %21

20:                                               ; preds = %4
  store i1 false, ptr %5, align 1
  store i32 1, ptr %15, align 4
  br label %260

21:                                               ; preds = %4
  %22 = load ptr, ptr %6, align 8
  %23 = load i32, ptr %10, align 4
  %24 = call i32 @tvb_strneql(ptr noundef %22, i32 noundef %23, ptr noundef @.str.168, i64 noundef 8)
  %25 = icmp ne i32 %24, 0
  br i1 %25, label %26, label %27

26:                                               ; preds = %21
  store i1 false, ptr %5, align 1
  store i32 1, ptr %15, align 4
  br label %260

27:                                               ; preds = %21
  %28 = load i32, ptr %10, align 4
  %29 = add i32 %28, 8
  store i32 %29, ptr %10, align 4
  %30 = call ptr @wmem_file_scope()
  %31 = load ptr, ptr %7, align 8
  %32 = load i32, ptr @proto_pdcp_lte, align 4
  %33 = call ptr @p_get_proto_data(ptr noundef %30, ptr noundef %31, i32 noundef %32, i32 noundef 0)
  store ptr %33, ptr %11, align 8
  %34 = load ptr, ptr %11, align 8
  %35 = icmp eq ptr %34, null
  br i1 %35, label %36, label %243

36:                                               ; preds = %27
  %37 = call ptr @wmem_file_scope()
  %38 = call noalias ptr @wmem_alloc0(ptr noundef %37, i64 noundef 64) #16
  store ptr %38, ptr %11, align 8
  %39 = load ptr, ptr %6, align 8
  %40 = load i32, ptr %10, align 4
  %41 = add i32 %40, 1
  store i32 %41, ptr %10, align 4
  %42 = call zeroext i8 @tvb_get_uint8(ptr noundef %39, i32 noundef %40)
  %43 = icmp ne i8 %42, 0
  %44 = load ptr, ptr %11, align 8
  %45 = getelementptr inbounds nuw %struct.pdcp_lte_info, ptr %44, i32 0, i32 5
  %46 = zext i1 %43 to i8
  store i8 %46, ptr %45, align 8
  %47 = load ptr, ptr %6, align 8
  %48 = load i32, ptr %10, align 4
  %49 = add i32 %48, 1
  store i32 %49, ptr %10, align 4
  %50 = call zeroext i8 @tvb_get_uint8(ptr noundef %47, i32 noundef %48)
  %51 = zext i8 %50 to i32
  %52 = load ptr, ptr %11, align 8
  %53 = getelementptr inbounds nuw %struct.pdcp_lte_info, ptr %52, i32 0, i32 6
  store i32 %51, ptr %53, align 4
  %54 = load ptr, ptr %11, align 8
  %55 = getelementptr inbounds nuw %struct.pdcp_lte_info, ptr %54, i32 0, i32 6
  %56 = load i32, ptr %55, align 4
  %57 = icmp eq i32 %56, 1
  br i1 %57, label %58, label %61

58:                                               ; preds = %36
  %59 = load ptr, ptr %11, align 8
  %60 = getelementptr inbounds nuw %struct.pdcp_lte_info, ptr %59, i32 0, i32 7
  store i8 5, ptr %60, align 8
  br label %61

61:                                               ; preds = %58, %36
  %62 = load ptr, ptr %6, align 8
  %63 = load i32, ptr %10, align 4
  %64 = add i32 %63, 1
  store i32 %64, ptr %10, align 4
  %65 = call zeroext i8 @tvb_get_uint8(ptr noundef %62, i32 noundef %63)
  %66 = icmp ne i8 %65, 0
  %67 = load ptr, ptr %11, align 8
  %68 = getelementptr inbounds nuw %struct.pdcp_lte_info, ptr %67, i32 0, i32 8
  %69 = getelementptr inbounds nuw %struct.rohc_info, ptr %68, i32 0, i32 0
  %70 = zext i1 %66 to i8
  store i8 %70, ptr %69, align 8
  br label %71

71:                                               ; preds = %220, %205, %61
  %72 = load i8, ptr %13, align 1
  %73 = zext i8 %72 to i32
  %74 = icmp ne i32 %73, 1
  br i1 %74, label %75, label %221

75:                                               ; preds = %71
  %76 = load ptr, ptr %6, align 8
  %77 = load i32, ptr %10, align 4
  %78 = add i32 %77, 1
  store i32 %78, ptr %10, align 4
  %79 = call zeroext i8 @tvb_get_uint8(ptr noundef %76, i32 noundef %77)
  store i8 %79, ptr %13, align 1
  %80 = load i8, ptr %13, align 1
  %81 = zext i8 %80 to i32
  switch i32 %81, label %212 [
    i32 2, label %82
    i32 3, label %90
    i32 4, label %98
    i32 5, label %107
    i32 6, label %116
    i32 7, label %126
    i32 8, label %137
    i32 9, label %148
    i32 10, label %158
    i32 11, label %169
    i32 12, label %180
    i32 13, label %189
    i32 14, label %197
    i32 1, label %205
  ]

82:                                               ; preds = %75
  %83 = load ptr, ptr %6, align 8
  %84 = load i32, ptr %10, align 4
  %85 = call zeroext i8 @tvb_get_uint8(ptr noundef %83, i32 noundef %84)
  %86 = load ptr, ptr %11, align 8
  %87 = getelementptr inbounds nuw %struct.pdcp_lte_info, ptr %86, i32 0, i32 7
  store i8 %85, ptr %87, align 8
  %88 = load i32, ptr %10, align 4
  %89 = add i32 %88, 1
  store i32 %89, ptr %10, align 4
  store i8 1, ptr %14, align 1
  br label %220

90:                                               ; preds = %75
  %91 = load ptr, ptr %6, align 8
  %92 = load i32, ptr %10, align 4
  %93 = call zeroext i8 @tvb_get_uint8(ptr noundef %91, i32 noundef %92)
  %94 = load ptr, ptr %11, align 8
  %95 = getelementptr inbounds nuw %struct.pdcp_lte_info, ptr %94, i32 0, i32 0
  store i8 %93, ptr %95, align 8
  %96 = load i32, ptr %10, align 4
  %97 = add i32 %96, 1
  store i32 %97, ptr %10, align 4
  br label %220

98:                                               ; preds = %75
  %99 = load ptr, ptr %6, align 8
  %100 = load i32, ptr %10, align 4
  %101 = call zeroext i8 @tvb_get_uint8(ptr noundef %99, i32 noundef %100)
  %102 = zext i8 %101 to i32
  %103 = load ptr, ptr %11, align 8
  %104 = getelementptr inbounds nuw %struct.pdcp_lte_info, ptr %103, i32 0, i32 2
  store i32 %102, ptr %104, align 4
  %105 = load i32, ptr %10, align 4
  %106 = add i32 %105, 1
  store i32 %106, ptr %10, align 4
  br label %220

107:                                              ; preds = %75
  %108 = load ptr, ptr %6, align 8
  %109 = load i32, ptr %10, align 4
  %110 = call zeroext i8 @tvb_get_uint8(ptr noundef %108, i32 noundef %109)
  %111 = zext i8 %110 to i32
  %112 = load ptr, ptr %11, align 8
  %113 = getelementptr inbounds nuw %struct.pdcp_lte_info, ptr %112, i32 0, i32 4
  store i32 %111, ptr %113, align 4
  %114 = load i32, ptr %10, align 4
  %115 = add i32 %114, 1
  store i32 %115, ptr %10, align 4
  br label %220

116:                                              ; preds = %75
  %117 = load ptr, ptr %6, align 8
  %118 = load i32, ptr %10, align 4
  %119 = add i32 %118, 1
  %120 = call zeroext i8 @tvb_get_uint8(ptr noundef %117, i32 noundef %119)
  %121 = load ptr, ptr %11, align 8
  %122 = getelementptr inbounds nuw %struct.pdcp_lte_info, ptr %121, i32 0, i32 8
  %123 = getelementptr inbounds nuw %struct.rohc_info, ptr %122, i32 0, i32 1
  store i8 %120, ptr %123, align 1
  %124 = load i32, ptr %10, align 4
  %125 = add i32 %124, 2
  store i32 %125, ptr %10, align 4
  br label %220

126:                                              ; preds = %75
  %127 = load ptr, ptr %6, align 8
  %128 = load i32, ptr %10, align 4
  %129 = call zeroext i8 @tvb_get_uint8(ptr noundef %127, i32 noundef %128)
  %130 = icmp ne i8 %129, 0
  %131 = load ptr, ptr %11, align 8
  %132 = getelementptr inbounds nuw %struct.pdcp_lte_info, ptr %131, i32 0, i32 8
  %133 = getelementptr inbounds nuw %struct.rohc_info, ptr %132, i32 0, i32 2
  %134 = zext i1 %130 to i8
  store i8 %134, ptr %133, align 2
  %135 = load i32, ptr %10, align 4
  %136 = add i32 %135, 1
  store i32 %136, ptr %10, align 4
  br label %220

137:                                              ; preds = %75
  %138 = load ptr, ptr %6, align 8
  %139 = load i32, ptr %10, align 4
  %140 = call zeroext i8 @tvb_get_uint8(ptr noundef %138, i32 noundef %139)
  %141 = icmp ne i8 %140, 0
  %142 = load ptr, ptr %11, align 8
  %143 = getelementptr inbounds nuw %struct.pdcp_lte_info, ptr %142, i32 0, i32 8
  %144 = getelementptr inbounds nuw %struct.rohc_info, ptr %143, i32 0, i32 3
  %145 = zext i1 %141 to i8
  store i8 %145, ptr %144, align 1
  %146 = load i32, ptr %10, align 4
  %147 = add i32 %146, 1
  store i32 %147, ptr %10, align 4
  br label %220

148:                                              ; preds = %75
  %149 = load ptr, ptr %6, align 8
  %150 = load i32, ptr %10, align 4
  %151 = call zeroext i8 @tvb_get_uint8(ptr noundef %149, i32 noundef %150)
  %152 = zext i8 %151 to i32
  %153 = load ptr, ptr %11, align 8
  %154 = getelementptr inbounds nuw %struct.pdcp_lte_info, ptr %153, i32 0, i32 8
  %155 = getelementptr inbounds nuw %struct.rohc_info, ptr %154, i32 0, i32 4
  store i32 %152, ptr %155, align 4
  %156 = load i32, ptr %10, align 4
  %157 = add i32 %156, 1
  store i32 %157, ptr %10, align 4
  br label %220

158:                                              ; preds = %75
  %159 = load ptr, ptr %6, align 8
  %160 = load i32, ptr %10, align 4
  %161 = call zeroext i8 @tvb_get_uint8(ptr noundef %159, i32 noundef %160)
  %162 = icmp ne i8 %161, 0
  %163 = load ptr, ptr %11, align 8
  %164 = getelementptr inbounds nuw %struct.pdcp_lte_info, ptr %163, i32 0, i32 8
  %165 = getelementptr inbounds nuw %struct.rohc_info, ptr %164, i32 0, i32 5
  %166 = zext i1 %162 to i8
  store i8 %166, ptr %165, align 8
  %167 = load i32, ptr %10, align 4
  %168 = add i32 %167, 1
  store i32 %168, ptr %10, align 4
  br label %220

169:                                              ; preds = %75
  %170 = load ptr, ptr %6, align 8
  %171 = load i32, ptr %10, align 4
  %172 = call zeroext i8 @tvb_get_uint8(ptr noundef %170, i32 noundef %171)
  %173 = icmp ne i8 %172, 0
  %174 = load ptr, ptr %11, align 8
  %175 = getelementptr inbounds nuw %struct.pdcp_lte_info, ptr %174, i32 0, i32 8
  %176 = getelementptr inbounds nuw %struct.rohc_info, ptr %175, i32 0, i32 6
  %177 = zext i1 %173 to i8
  store i8 %177, ptr %176, align 1
  %178 = load i32, ptr %10, align 4
  %179 = add i32 %178, 1
  store i32 %179, ptr %10, align 4
  br label %220

180:                                              ; preds = %75
  %181 = load ptr, ptr %6, align 8
  %182 = load i32, ptr %10, align 4
  %183 = call zeroext i16 @tvb_get_ntohs(ptr noundef %181, i32 noundef %182)
  %184 = load ptr, ptr %11, align 8
  %185 = getelementptr inbounds nuw %struct.pdcp_lte_info, ptr %184, i32 0, i32 8
  %186 = getelementptr inbounds nuw %struct.rohc_info, ptr %185, i32 0, i32 7
  store i16 %183, ptr %186, align 2
  %187 = load i32, ptr %10, align 4
  %188 = add i32 %187, 2
  store i32 %188, ptr %10, align 4
  br label %220

189:                                              ; preds = %75
  %190 = load ptr, ptr %6, align 8
  %191 = load i32, ptr %10, align 4
  %192 = call zeroext i16 @tvb_get_ntohs(ptr noundef %190, i32 noundef %191)
  %193 = load ptr, ptr %11, align 8
  %194 = getelementptr inbounds nuw %struct.pdcp_lte_info, ptr %193, i32 0, i32 3
  store i16 %192, ptr %194, align 8
  %195 = load i32, ptr %10, align 4
  %196 = add i32 %195, 2
  store i32 %196, ptr %10, align 4
  br label %220

197:                                              ; preds = %75
  %198 = load ptr, ptr %6, align 8
  %199 = load i32, ptr %10, align 4
  %200 = call zeroext i16 @tvb_get_ntohs(ptr noundef %198, i32 noundef %199)
  %201 = load ptr, ptr %11, align 8
  %202 = getelementptr inbounds nuw %struct.pdcp_lte_info, ptr %201, i32 0, i32 1
  store i16 %200, ptr %202, align 2
  %203 = load i32, ptr %10, align 4
  %204 = add i32 %203, 2
  store i32 %204, ptr %10, align 4
  br label %220

205:                                              ; preds = %75
  %206 = load ptr, ptr %6, align 8
  %207 = load i32, ptr %10, align 4
  %208 = call i32 @tvb_reported_length_remaining(ptr noundef %206, i32 noundef %207)
  %209 = trunc i32 %208 to i16
  %210 = load ptr, ptr %11, align 8
  %211 = getelementptr inbounds nuw %struct.pdcp_lte_info, ptr %210, i32 0, i32 10
  store i16 %209, ptr %211, align 2
  br label %71, !llvm.loop !16

212:                                              ; preds = %75
  %213 = load ptr, ptr %8, align 8
  %214 = load ptr, ptr %7, align 8
  %215 = load ptr, ptr %6, align 8
  %216 = load i32, ptr %10, align 4
  %217 = sub i32 %216, 1
  call void @report_heur_error(ptr noundef %213, ptr noundef %214, ptr noundef @ei_pdcp_lte_unknown_udp_framing_tag, ptr noundef %215, i32 noundef %217, i32 noundef 1)
  %218 = call ptr @wmem_file_scope()
  %219 = load ptr, ptr %11, align 8
  call void @wmem_free(ptr noundef %218, ptr noundef %219)
  store i1 true, ptr %5, align 1
  store i32 1, ptr %15, align 4
  br label %260

220:                                              ; preds = %197, %189, %180, %169, %158, %148, %137, %126, %116, %107, %98, %90, %82
  br label %71, !llvm.loop !16

221:                                              ; preds = %71
  %222 = load ptr, ptr %11, align 8
  %223 = getelementptr inbounds nuw %struct.pdcp_lte_info, ptr %222, i32 0, i32 6
  %224 = load i32, ptr %223, align 4
  %225 = icmp eq i32 %224, 2
  br i1 %225, label %226, label %238

226:                                              ; preds = %221
  %227 = load i8, ptr %14, align 1, !range !8, !noundef !9
  %228 = trunc i8 %227 to i1
  %229 = zext i1 %228 to i32
  %230 = icmp eq i32 %229, 0
  br i1 %230, label %231, label %238

231:                                              ; preds = %226
  %232 = load ptr, ptr %8, align 8
  %233 = load ptr, ptr %7, align 8
  %234 = load ptr, ptr %6, align 8
  %235 = load i32, ptr %10, align 4
  call void @report_heur_error(ptr noundef %232, ptr noundef %233, ptr noundef @ei_pdcp_lte_missing_udp_framing_tag, ptr noundef %234, i32 noundef 0, i32 noundef %235)
  %236 = call ptr @wmem_file_scope()
  %237 = load ptr, ptr %11, align 8
  call void @wmem_free(ptr noundef %236, ptr noundef %237)
  store i1 true, ptr %5, align 1
  store i32 1, ptr %15, align 4
  br label %260

238:                                              ; preds = %226, %221
  %239 = call ptr @wmem_file_scope()
  %240 = load ptr, ptr %7, align 8
  %241 = load i32, ptr @proto_pdcp_lte, align 4
  %242 = load ptr, ptr %11, align 8
  call void @p_add_proto_data(ptr noundef %239, ptr noundef %240, i32 noundef %241, i32 noundef 0, ptr noundef %242)
  br label %251

243:                                              ; preds = %27
  %244 = load ptr, ptr %6, align 8
  %245 = call i32 @tvb_reported_length(ptr noundef %244)
  %246 = load ptr, ptr %11, align 8
  %247 = getelementptr inbounds nuw %struct.pdcp_lte_info, ptr %246, i32 0, i32 10
  %248 = load i16, ptr %247, align 2
  %249 = zext i16 %248 to i32
  %250 = sub i32 %245, %249
  store i32 %250, ptr %10, align 4
  br label %251

251:                                              ; preds = %243, %238
  %252 = load ptr, ptr %6, align 8
  %253 = load i32, ptr %10, align 4
  %254 = call ptr @tvb_new_subset_remaining(ptr noundef %252, i32 noundef %253)
  store ptr %254, ptr %12, align 8
  %255 = load ptr, ptr %12, align 8
  %256 = load ptr, ptr %7, align 8
  %257 = load ptr, ptr %8, align 8
  %258 = load ptr, ptr %9, align 8
  %259 = call i32 @dissect_pdcp_lte(ptr noundef %255, ptr noundef %256, ptr noundef %257, ptr noundef %258)
  store i1 true, ptr %5, align 1
  store i32 1, ptr %15, align 4
  br label %260

260:                                              ; preds = %251, %231, %212, %26, %20
  call void @llvm.lifetime.end.p0(i64 1, ptr %14) #15
  call void @llvm.lifetime.end.p0(i64 1, ptr %13) #15
  call void @llvm.lifetime.end.p0(i64 8, ptr %12) #15
  call void @llvm.lifetime.end.p0(i64 8, ptr %11) #15
  call void @llvm.lifetime.end.p0(i64 4, ptr %10) #15
  %261 = load i1, ptr %5, align 1
  ret i1 %261
}