; Function Attrs: null_pointer_is_valid sspstrong uwtable
define internal noundef zeroext i1 @dissect_pdcp_lte_heur(ptr noundef %0, ptr noundef %1, ptr noundef %2, ptr readnone captures(none) %3) #0 {
  %5 = tail call i32 @tvb_captured_length_remaining(ptr noundef %0, i32 noundef 0)
  %6 = icmp slt i32 %5, 13
  br i1 %6, label %101, label %7

7:                                                ; preds = %4
  %8 = tail call i32 @tvb_strneql(ptr noundef %0, i32 noundef 0, ptr noundef nonnull @.str.168, i64 noundef 8)
  %.not = icmp eq i32 %8, 0
  br i1 %.not, label %9, label %101

9:                                                ; preds = %7
  %10 = tail call ptr @wmem_file_scope()
  %11 = load i32, ptr @proto_pdcp_lte, align 4
  %12 = tail call ptr @p_get_proto_data(ptr noundef %10, ptr noundef %1, i32 noundef %11, i32 noundef 0)
  %13 = icmp eq ptr %12, null
  br i1 %13, label %14, label %92

14:                                               ; preds = %9
  %15 = tail call ptr @wmem_file_scope()
  %16 = tail call noalias dereferenceable_or_null(64) ptr @wmem_alloc0(ptr noundef %15, i64 noundef 64) #16
  %17 = tail call zeroext i8 @tvb_get_uint8(ptr noundef %0, i32 noundef 8)
  %18 = icmp ne i8 %17, 0
  %19 = getelementptr inbounds nuw i8, ptr %16, i64 16
  %20 = zext i1 %18 to i8
  store i8 %20, ptr %19, align 8
  %21 = tail call zeroext i8 @tvb_get_uint8(ptr noundef %0, i32 noundef 9)
  %22 = zext i8 %21 to i32
  %23 = getelementptr inbounds nuw i8, ptr %16, i64 20
  store i32 %22, ptr %23, align 4
  %24 = icmp eq i8 %21, 1
  br i1 %24, label %25, label %.split226

25:                                               ; preds = %14
  %26 = getelementptr inbounds nuw i8, ptr %16, i64 24
  store i8 5, ptr %26, align 8
  br label %.split226

.split226:                                        ; preds = %25, %14
  %27 = tail call zeroext i8 @tvb_get_uint8(ptr noundef %0, i32 noundef 10)
  %28 = icmp ne i8 %27, 0
  %29 = getelementptr inbounds nuw i8, ptr %16, i64 32
  %30 = zext i1 %28 to i8
  store i8 %30, ptr %29, align 8
  %31 = getelementptr inbounds nuw i8, ptr %16, i64 2
  %32 = getelementptr inbounds nuw i8, ptr %16, i64 8
  %33 = getelementptr inbounds nuw i8, ptr %16, i64 42
  %34 = getelementptr inbounds nuw i8, ptr %16, i64 41
  %35 = getelementptr inbounds nuw i8, ptr %16, i64 40
  %36 = getelementptr inbounds nuw i8, ptr %16, i64 36
  %37 = getelementptr inbounds nuw i8, ptr %16, i64 35
  %38 = getelementptr inbounds nuw i8, ptr %16, i64 34
  %39 = getelementptr inbounds nuw i8, ptr %16, i64 33
  %40 = getelementptr inbounds nuw i8, ptr %16, i64 12
  %41 = getelementptr inbounds nuw i8, ptr %16, i64 4
  %42 = getelementptr inbounds nuw i8, ptr %16, i64 24
  br label %.lr.ph

.lr.ph:                                           ; preds = %.outer, %.split226
  %.0.ph228 = phi i8 [ 0, %.split226 ], [ %.1, %.outer ]
  %.0101.ph227 = phi i32 [ 11, %.split226 ], [ %71, %.outer ]
  %43 = add i32 %.0101.ph227, 1
  %44 = tail call zeroext i8 @tvb_get_uint8(ptr noundef %0, i32 noundef %.0101.ph227)
  switch i8 %44, label %.split.us [
    i8 2, label %.split154.us
    i8 3, label %.split159.us
    i8 4, label %.split164.us
    i8 5, label %.split169.us
    i8 6, label %.split174.us
    i8 7, label %.split178.us
    i8 8, label %.split183.us
    i8 9, label %.split188.us
    i8 10, label %.split193.us
    i8 11, label %.split198.us
    i8 12, label %.split203.us
    i8 13, label %.split208.us
    i8 14, label %.split213.us
    i8 1, label %.outer._crit_edge
  ]

.split154.us:                                     ; preds = %.lr.ph
  %45 = tail call zeroext i8 @tvb_get_uint8(ptr noundef %0, i32 noundef %43)
  store i8 %45, ptr %42, align 8
  br label %.outer

.split159.us:                                     ; preds = %.lr.ph
  %46 = tail call zeroext i8 @tvb_get_uint8(ptr noundef %0, i32 noundef %43)
  store i8 %46, ptr %16, align 8
  br label %.outer

.split164.us:                                     ; preds = %.lr.ph
  %47 = tail call zeroext i8 @tvb_get_uint8(ptr noundef %0, i32 noundef %43)
  %48 = zext i8 %47 to i32
  store i32 %48, ptr %41, align 4
  br label %.outer

.split169.us:                                     ; preds = %.lr.ph
  %49 = tail call zeroext i8 @tvb_get_uint8(ptr noundef %0, i32 noundef %43)
  %50 = zext i8 %49 to i32
  store i32 %50, ptr %40, align 4
  br label %.outer

.split174.us:                                     ; preds = %.lr.ph
  %51 = add i32 %.0101.ph227, 2
  %52 = tail call zeroext i8 @tvb_get_uint8(ptr noundef %0, i32 noundef %51)
  store i8 %52, ptr %39, align 1
  br label %.outer

.split178.us:                                     ; preds = %.lr.ph
  %53 = tail call zeroext i8 @tvb_get_uint8(ptr noundef %0, i32 noundef %43)
  %54 = icmp ne i8 %53, 0
  %55 = zext i1 %54 to i8
  store i8 %55, ptr %38, align 2
  br label %.outer

.split183.us:                                     ; preds = %.lr.ph
  %56 = tail call zeroext i8 @tvb_get_uint8(ptr noundef %0, i32 noundef %43)
  %57 = icmp ne i8 %56, 0
  %58 = zext i1 %57 to i8
  store i8 %58, ptr %37, align 1
  br label %.outer

.split188.us:                                     ; preds = %.lr.ph
  %59 = tail call zeroext i8 @tvb_get_uint8(ptr noundef %0, i32 noundef %43)
  %60 = zext i8 %59 to i32
  store i32 %60, ptr %36, align 4
  br label %.outer

.split193.us:                                     ; preds = %.lr.ph
  %61 = tail call zeroext i8 @tvb_get_uint8(ptr noundef %0, i32 noundef %43)
  %62 = icmp ne i8 %61, 0
  %63 = zext i1 %62 to i8
  store i8 %63, ptr %35, align 8
  br label %.outer

.split198.us:                                     ; preds = %.lr.ph
  %64 = tail call zeroext i8 @tvb_get_uint8(ptr noundef %0, i32 noundef %43)
  %65 = icmp ne i8 %64, 0
  %66 = zext i1 %65 to i8
  store i8 %66, ptr %34, align 1
  br label %.outer

.split203.us:                                     ; preds = %.lr.ph
  %67 = tail call zeroext i16 @tvb_get_ntohs(ptr noundef %0, i32 noundef %43)
  store i16 %67, ptr %33, align 2
  br label %.outer

.split208.us:                                     ; preds = %.lr.ph
  %68 = tail call zeroext i16 @tvb_get_ntohs(ptr noundef %0, i32 noundef %43)
  store i16 %68, ptr %32, align 8
  br label %.outer

.split213.us:                                     ; preds = %.lr.ph
  %69 = tail call zeroext i16 @tvb_get_ntohs(ptr noundef %0, i32 noundef %43)
  store i16 %69, ptr %31, align 2
  br label %.outer

.split.us:                                        ; preds = %.lr.ph
  tail call fastcc void @report_heur_error(ptr noundef %2, ptr noundef %1, ptr noundef nonnull @ei_pdcp_lte_unknown_udp_framing_tag, ptr noundef %0, i32 noundef %.0101.ph227, i32 noundef 1)
  %70 = tail call ptr @wmem_file_scope()
  tail call void @wmem_free(ptr noundef %70, ptr noundef %16)
  br label %101

.outer:                                           ; preds = %.split213.us, %.split208.us, %.split203.us, %.split198.us, %.split193.us, %.split188.us, %.split183.us, %.split178.us, %.split174.us, %.split169.us, %.split164.us, %.split159.us, %.split154.us
  %.sink = phi i32 [ 3, %.split213.us ], [ 3, %.split208.us ], [ 3, %.split203.us ], [ 2, %.split198.us ], [ 2, %.split193.us ], [ 2, %.split188.us ], [ 2, %.split183.us ], [ 2, %.split178.us ], [ 3, %.split174.us ], [ 2, %.split169.us ], [ 2, %.split164.us ], [ 2, %.split159.us ], [ 2, %.split154.us ]
  %.1 = phi i8 [ %.0.ph228, %.split213.us ], [ %.0.ph228, %.split208.us ], [ %.0.ph228, %.split203.us ], [ %.0.ph228, %.split198.us ], [ %.0.ph228, %.split193.us ], [ %.0.ph228, %.split188.us ], [ %.0.ph228, %.split183.us ], [ %.0.ph228, %.split178.us ], [ %.0.ph228, %.split174.us ], [ %.0.ph228, %.split169.us ], [ %.0.ph228, %.split164.us ], [ %.0.ph228, %.split159.us ], [ 1, %.split154.us ]
  %71 = add i32 %.0101.ph227, %.sink
  br label %.lr.ph, !llvm.loop !17

.outer._crit_edge:                                ; preds = %.lr.ph
  %72 = getelementptr inbounds nuw i8, ptr %16, i64 58
  %73 = tail call i32 @tvb_reported_length_remaining(ptr noundef %0, i32 noundef %43)
  %74 = trunc i32 %73 to i16
  store i16 %74, ptr %72, align 2
  %75 = load i32, ptr %23, align 4
  %76 = icmp eq i32 %75, 2
  %77 = and i8 %.0.ph228, 1
  %78 = icmp eq i8 %77, 0
  %or.cond = select i1 %76, i1 %78, i1 false
  br i1 %or.cond, label %79, label %89

79:                                               ; preds = %.outer._crit_edge
  %80 = getelementptr inbounds nuw i8, ptr %1, i64 8
  %81 = load ptr, ptr %80, align 8
  tail call void @col_set_str(ptr noundef %81, i32 noundef 35, ptr noundef nonnull @.str.167)
  %82 = load ptr, ptr %80, align 8
  tail call void @col_clear(ptr noundef %82, i32 noundef 25)
  %83 = load i32, ptr @proto_pdcp_lte, align 4
  %84 = tail call ptr @proto_tree_add_item(ptr noundef %2, i32 noundef %83, ptr noundef %0, i32 noundef 0, i32 noundef -1, i32 noundef 0)
  %85 = load i32, ptr @ett_pdcp, align 4
  %86 = tail call ptr @proto_item_add_subtree(ptr noundef %84, i32 noundef %85)
  %87 = tail call ptr @proto_tree_add_expert(ptr noundef %86, ptr noundef %1, ptr noundef nonnull @ei_pdcp_lte_missing_udp_framing_tag, ptr noundef %0, i32 noundef 0, i32 noundef %43)
  %88 = tail call ptr @wmem_file_scope()
  tail call void @wmem_free(ptr noundef %88, ptr noundef %16)
  br label %101

89:                                               ; preds = %.outer._crit_edge
  %90 = tail call ptr @wmem_file_scope()
  %91 = load i32, ptr @proto_pdcp_lte, align 4
  tail call void @p_add_proto_data(ptr noundef %90, ptr noundef %1, i32 noundef %91, i32 noundef 0, ptr noundef %16)
  br label %98

92:                                               ; preds = %9
  %93 = tail call i32 @tvb_reported_length(ptr noundef %0)
  %94 = getelementptr inbounds nuw i8, ptr %12, i64 58
  %95 = load i16, ptr %94, align 2
  %96 = zext i16 %95 to i32
  %97 = sub i32 %93, %96
  br label %98

98:                                               ; preds = %92, %89
  %.2 = phi i32 [ %43, %89 ], [ %97, %92 ]
  %99 = tail call ptr @tvb_new_subset_remaining(ptr noundef %0, i32 noundef %.2)
  %100 = tail call i32 @dissect_pdcp_lte(ptr noundef %99, ptr noundef %1, ptr noundef %2, ptr poison)
  br label %101

101:                                              ; preds = %7, %4, %98, %79, %.split.us
  %.0100 = phi i1 [ true, %.split.us ], [ true, %79 ], [ true, %98 ], [ false, %4 ], [ false, %7 ]
  ret i1 %.0100
}